; Function Attrs: inlinehint nounwind uwtable
define internal fastcc ptr @lean_array_uset(ptr noundef %0, i64 noundef %1, ptr noundef %2) unnamed_addr #0 {
  %.val.i = load i32, ptr %0, align 4, !tbaa !4
  %4 = icmp eq i32 %.val.i, 1
  br i1 %4, label %lean_ensure_exclusive_array.exit, label %5

5:                                                ; preds = %3
  %6 = tail call ptr @lean_copy_expand_array(ptr noundef nonnull %0, i1 noundef zeroext false) #5
  br label %lean_ensure_exclusive_array.exit

lean_ensure_exclusive_array.exit:                 ; preds = %3, %5
  %.0.i = phi ptr [ %6, %5 ], [ %0, %3 ]
  %7 = getelementptr inbounds nuw i8, ptr %.0.i, i64 24
  %8 = getelementptr inbounds nuw ptr, ptr %7, i64 %1
  %9 = load ptr, ptr %8, align 8, !tbaa !9
  %10 = ptrtoint ptr %9 to i64
  %11 = and i64 %10, 1
  %.not = icmp eq i64 %11, 0
  br i1 %.not, label %12, label %lean_dec.exit

12:                                               ; preds = %lean_ensure_exclusive_array.exit
  %13 = load i32, ptr %9, align 4, !tbaa !4
  %14 = icmp sgt i32 %13, 1
  br i1 %14, label %15, label %17, !prof !11

15:                                               ; preds = %12
  %16 = add nsw i32 %13, -1
  store i32 %16, ptr %9, align 4, !tbaa !4
  br label %lean_dec.exit

17:                                               ; preds = %12
  %.not.i = icmp eq i32 %13, 0
  br i1 %.not.i, label %lean_dec.exit, label %18

18:                                               ; preds = %17
  tail call void @lean_dec_ref_cold(ptr noundef nonnull %9) #5
  br label %lean_dec.exit

lean_dec.exit:                                    ; preds = %18, %17, %15, %lean_ensure_exclusive_array.exit
  store ptr %2, ptr %8, align 8, !tbaa !9
  ret ptr %.0.i
}